target datalayout = "e-m:e-p270:32:32-p271:32:32-p272:64:64-i64:64-i128:128-f80:128-n8:16:32:64-S128"
target triple = "x86_64-pc-linux-gnu"

%struct._packet_info = type { ptr, ptr, i32, i32, %struct.nstime_t, %struct.nstime_t, %struct.nstime_t, i8, ptr, ptr, ptr, ptr, %struct._address, %struct._address, %struct._address, %struct._address, %struct._address, %struct._address, i32, ptr, i8, [3 x i8], %struct.anon, i32, i32, i32, i32, ptr, i8, ptr, ptr, i16, i16, i32, i32, i16, i32, i32, ptr, ptr, ptr, i8, i8, i16, i16, i16, i32, i16, i16, ptr, ptr, ptr, ptr, ptr, i32, i32 }
%struct.nstime_t = type { i64, i32 }
%struct._address = type { i32, i32, ptr, ptr }
%struct.anon = type { i8, [3 x i8] }

@hf_s7comm_cpu_msgservice_subscribe_events = internal global i32 0, align 4
@hf_s7comm_cpu_msgservice_req_reserved1 = internal global i32 0, align 4
@hf_s7comm_cpu_msgservice_username = internal global i32 0, align 4
@hf_s7comm_cpu_msgservice_almtype = internal global i32 0, align 4
@hf_s7comm_cpu_msgservice_req_reserved2 = internal global i32 0, align 4
@hf_s7comm_cpu_msgservice_res_result = internal global i32 0, align 4
@hf_s7comm_cpu_msgservice_res_reserved1 = internal global i32 0, align 4
@hf_s7comm_cpu_msgservice_res_reserved2 = internal global i32 0, align 4
@hf_s7comm_cpu_msgservice_res_reserved3 = internal global i32 0, align 4
@ett_s7comm_cpu_msgservice_subscribe_events = internal global i32 0, align 4
@.str.2124 = private unnamed_addr constant [1 x i8] zeroinitializer, align 1
@.str.2350 = private unnamed_addr constant [21 x i8] c"Unknown type: 0x%02x\00", align 1
@.str.2420 = private unnamed_addr constant [6 x i8] c"MODE,\00", align 1
@.str.2421 = private unnamed_addr constant [5 x i8] c"SYS,\00", align 1
@.str.2422 = private unnamed_addr constant [5 x i8] c"USR,\00", align 1
@.str.2423 = private unnamed_addr constant [5 x i8] c"-4-,\00", align 1
@.str.2424 = private unnamed_addr constant [5 x i8] c"-5-,\00", align 1
@.str.2425 = private unnamed_addr constant [5 x i8] c"-6-,\00", align 1
@.str.2426 = private unnamed_addr constant [5 x i8] c"-7-,\00", align 1
@.str.2427 = private unnamed_addr constant [5 x i8] c"ALM,\00", align 1
@.str.2428 = private unnamed_addr constant [23 x i8] c" SubscribedEvents=(%s)\00", align 1
@.str.2429 = private unnamed_addr constant [12 x i8] c" AlmType=%s\00", align 1

; Function Attrs: null_pointer_is_valid sspstrong uwtable
define internal i32 @s7comm_decode_message_service(ptr noundef %0, ptr noundef %1, ptr noundef %2, i8 noundef zeroext %3, i32 noundef %4, i32 noundef %5) #0 {
  %7 = alloca ptr, align 8
  %8 = alloca ptr, align 8
  %9 = alloca ptr, align 8
  %10 = alloca i8, align 1
  %11 = alloca i32, align 4
  %12 = alloca i32, align 4
  %13 = alloca i8, align 1
  %14 = alloca i8, align 1
  %15 = alloca [42 x i8], align 16
  store ptr %0, ptr %7, align 8
  store ptr %1, ptr %8, align 8
  store ptr %2, ptr %9, align 8
  store i8 %3, ptr %10, align 1
  store i32 %4, ptr %11, align 4
  store i32 %5, ptr %12, align 4
  call void @llvm.lifetime.start.p0(i64 1, ptr %13) #8
  call void @llvm.lifetime.start.p0(i64 1, ptr %14) #8
  call void @llvm.lifetime.start.p0(i64 42, ptr %15) #8
  %16 = load i8, ptr %10, align 1
  %17 = zext i8 %16 to i32
  switch i32 %17, label %236 [
    i32 1, label %18
    i32 2, label %171
  ]

18:                                               ; preds = %6
  %19 = load ptr, ptr %7, align 8
  %20 = load i32, ptr %12, align 4
  %21 = call zeroext i8 @tvb_get_uint8(ptr noundef %19, i32 noundef %20)
  store i8 %21, ptr %13, align 1
  %22 = load ptr, ptr %9, align 8
  %23 = load ptr, ptr %7, align 8
  %24 = load i32, ptr %12, align 4
  %25 = load i32, ptr @hf_s7comm_cpu_msgservice_subscribe_events, align 4
  %26 = load i32, ptr @ett_s7comm_cpu_msgservice_subscribe_events, align 4
  %27 = call ptr @proto_tree_add_bitmask(ptr noundef %22, ptr noundef %23, i32 noundef %24, i32 noundef %25, i32 noundef %26, ptr noundef @s7comm_cpu_msgservice_subscribe_events_fields, i32 noundef 0)
  %28 = load i32, ptr %12, align 4
  %29 = add i32 %28, 1
  store i32 %29, ptr %12, align 4
  %30 = load ptr, ptr %9, align 8
  %31 = load i32, ptr @hf_s7comm_cpu_msgservice_req_reserved1, align 4
  %32 = load ptr, ptr %7, align 8
  %33 = load i32, ptr %12, align 4
  %34 = call ptr @proto_tree_add_item(ptr noundef %30, i32 noundef %31, ptr noundef %32, i32 noundef %33, i32 noundef 1, i32 noundef 0)
  %35 = load i32, ptr %12, align 4
  %36 = add i32 %35, 1
  store i32 %36, ptr %12, align 4
  %37 = getelementptr inbounds [42 x i8], ptr %15, i64 0, i64 0
  %38 = call i64 @g_strlcpy(ptr noundef %37, ptr noundef @.str.2124, i64 noundef 42)
  %39 = load i8, ptr %13, align 1
  %40 = zext i8 %39 to i32
  %41 = and i32 %40, 1
  %42 = icmp ne i32 %41, 0
  br i1 %42, label %43, label %46

43:                                               ; preds = %18
  %44 = getelementptr inbounds [42 x i8], ptr %15, i64 0, i64 0
  %45 = call i64 @g_strlcat(ptr noundef %44, ptr noundef @.str.2420, i64 noundef 42)
  br label %46

46:                                               ; preds = %43, %18
  %47 = load i8, ptr %13, align 1
  %48 = zext i8 %47 to i32
  %49 = and i32 %48, 2
  %50 = icmp ne i32 %49, 0
  br i1 %50, label %51, label %54

51:                                               ; preds = %46
  %52 = getelementptr inbounds [42 x i8], ptr %15, i64 0, i64 0
  %53 = call i64 @g_strlcat(ptr noundef %52, ptr noundef @.str.2421, i64 noundef 42)
  br label %54

54:                                               ; preds = %51, %46
  %55 = load i8, ptr %13, align 1
  %56 = zext i8 %55 to i32
  %57 = and i32 %56, 4
  %58 = icmp ne i32 %57, 0
  br i1 %58, label %59, label %62

59:                                               ; preds = %54
  %60 = getelementptr inbounds [42 x i8], ptr %15, i64 0, i64 0
  %61 = call i64 @g_strlcat(ptr noundef %60, ptr noundef @.str.2422, i64 noundef 42)
  br label %62

62:                                               ; preds = %59, %54
  %63 = load i8, ptr %13, align 1
  %64 = zext i8 %63 to i32
  %65 = and i32 %64, 8
  %66 = icmp ne i32 %65, 0
  br i1 %66, label %67, label %70

67:                                               ; preds = %62
  %68 = getelementptr inbounds [42 x i8], ptr %15, i64 0, i64 0
  %69 = call i64 @g_strlcat(ptr noundef %68, ptr noundef @.str.2423, i64 noundef 42)
  br label %70

70:                                               ; preds = %67, %62
  %71 = load i8, ptr %13, align 1
  %72 = zext i8 %71 to i32
  %73 = and i32 %72, 16
  %74 = icmp ne i32 %73, 0
  br i1 %74, label %75, label %78

75:                                               ; preds = %70
  %76 = getelementptr inbounds [42 x i8], ptr %15, i64 0, i64 0
  %77 = call i64 @g_strlcat(ptr noundef %76, ptr noundef @.str.2424, i64 noundef 42)
  br label %78

78:                                               ; preds = %75, %70
  %79 = load i8, ptr %13, align 1
  %80 = zext i8 %79 to i32
  %81 = and i32 %80, 32
  %82 = icmp ne i32 %81, 0
  br i1 %82, label %83, label %86

83:                                               ; preds = %78
  %84 = getelementptr inbounds [42 x i8], ptr %15, i64 0, i64 0
  %85 = call i64 @g_strlcat(ptr noundef %84, ptr noundef @.str.2425, i64 noundef 42)
  br label %86

86:                                               ; preds = %83, %78
  %87 = load i8, ptr %13, align 1
  %88 = zext i8 %87 to i32
  %89 = and i32 %88, 64
  %90 = icmp ne i32 %89, 0
  br i1 %90, label %91, label %94

91:                                               ; preds = %86
  %92 = getelementptr inbounds [42 x i8], ptr %15, i64 0, i64 0
  %93 = call i64 @g_strlcat(ptr noundef %92, ptr noundef @.str.2426, i64 noundef 42)
  br label %94

94:                                               ; preds = %91, %86
  %95 = load i8, ptr %13, align 1
  %96 = zext i8 %95 to i32
  %97 = and i32 %96, 128
  %98 = icmp ne i32 %97, 0
  br i1 %98, label %99, label %102

99:                                               ; preds = %94
  %100 = getelementptr inbounds [42 x i8], ptr %15, i64 0, i64 0
  %101 = call i64 @g_strlcat(ptr noundef %100, ptr noundef @.str.2427, i64 noundef 42)
  br label %102

102:                                              ; preds = %99, %94
  %103 = getelementptr inbounds [42 x i8], ptr %15, i64 0, i64 0
  %104 = call i64 @strlen(ptr noundef %103) #9
  %105 = icmp ugt i64 %104, 2
  br i1 %105, label %106, label %111

106:                                              ; preds = %102
  %107 = getelementptr inbounds [42 x i8], ptr %15, i64 0, i64 0
  %108 = call i64 @strlen(ptr noundef %107) #9
  %109 = sub i64 %108, 1
  %110 = getelementptr [42 x i8], ptr %15, i64 0, i64 %109
  store i8 0, ptr %110, align 1
  br label %111

111:                                              ; preds = %106, %102
  %112 = load ptr, ptr %8, align 8
  %113 = getelementptr inbounds nuw %struct._packet_info, ptr %112, i32 0, i32 1
  %114 = load ptr, ptr %113, align 8
  %115 = getelementptr inbounds [42 x i8], ptr %15, i64 0, i64 0
  call void (ptr, i32, ptr, ...) @col_append_fstr(ptr noundef %114, i32 noundef 25, ptr noundef @.str.2428, ptr noundef %115)
  %116 = load ptr, ptr %9, align 8
  %117 = load i32, ptr @hf_s7comm_cpu_msgservice_username, align 4
  %118 = load ptr, ptr %7, align 8
  %119 = load i32, ptr %12, align 4
  %120 = call ptr @proto_tree_add_item(ptr noundef %116, i32 noundef %117, ptr noundef %118, i32 noundef %119, i32 noundef 8, i32 noundef 0)
  %121 = load i32, ptr %12, align 4
  %122 = add i32 %121, 8
  store i32 %122, ptr %12, align 4
  %123 = load i8, ptr %13, align 1
  %124 = zext i8 %123 to i32
  %125 = and i32 %124, 128
  %126 = icmp ne i32 %125, 0
  br i1 %126, label %127, label %170

127:                                              ; preds = %111
  %128 = load i32, ptr %11, align 4
  %129 = icmp ugt i32 %128, 10
  br i1 %129, label %130, label %170

130:                                              ; preds = %127
  %131 = load ptr, ptr %7, align 8
  %132 = load i32, ptr %12, align 4
  %133 = call zeroext i8 @tvb_get_uint8(ptr noundef %131, i32 noundef %132)
  store i8 %133, ptr %14, align 1
  %134 = load ptr, ptr %9, align 8
  %135 = load i32, ptr @hf_s7comm_cpu_msgservice_almtype, align 4
  %136 = load ptr, ptr %7, align 8
  %137 = load i32, ptr %12, align 4
  %138 = call ptr @proto_tree_add_item(ptr noundef %134, i32 noundef %135, ptr noundef %136, i32 noundef %137, i32 noundef 1, i32 noundef 0)
  %139 = load ptr, ptr %8, align 8
  %140 = getelementptr inbounds nuw %struct._packet_info, ptr %139, i32 0, i32 1
  %141 = load ptr, ptr %140, align 8
  %142 = load i8, ptr %14, align 1
  %143 = zext i8 %142 to i32
  %144 = call ptr @val_to_str(i32 noundef %143, ptr noundef @cpu_msgservice_almtype_names, ptr noundef @.str.2350)
  call void (ptr, i32, ptr, ...) @col_append_fstr(ptr noundef %141, i32 noundef 25, ptr noundef @.str.2429, ptr noundef %144)
  %145 = load i32, ptr %12, align 4
  %146 = add i32 %145, 1
  store i32 %146, ptr %12, align 4
  %147 = load i8, ptr %14, align 1
  %148 = zext i8 %147 to i32
  %149 = icmp eq i32 %148, 7
  br i1 %149, label %154, label %150

150:                                              ; preds = %130
  %151 = load i8, ptr %14, align 1
  %152 = zext i8 %151 to i32
  %153 = icmp eq i32 %152, 6
  br i1 %153, label %154, label %161

154:                                              ; preds = %150, %130
  %155 = load ptr, ptr %7, align 8
  %156 = load ptr, ptr %8, align 8
  %157 = load ptr, ptr %9, align 8
  %158 = load i8, ptr %10, align 1
  %159 = load i32, ptr %12, align 4
  %160 = call i32 @s7comm_decode_message_service_ar_send_args(ptr noundef %155, ptr noundef %156, ptr noundef %157, i8 noundef zeroext %158, i32 noundef %159)
  store i32 %160, ptr %12, align 4
  br label %169

161:                                              ; preds = %150
  %162 = load ptr, ptr %9, align 8
  %163 = load i32, ptr @hf_s7comm_cpu_msgservice_req_reserved2, align 4
  %164 = load ptr, ptr %7, align 8
  %165 = load i32, ptr %12, align 4
  %166 = call ptr @proto_tree_add_item(ptr noundef %162, i32 noundef %163, ptr noundef %164, i32 noundef %165, i32 noundef 1, i32 noundef 0)
  %167 = load i32, ptr %12, align 4
  %168 = add i32 %167, 1
  store i32 %168, ptr %12, align 4
  br label %169

169:                                              ; preds = %161, %154
  br label %170

170:                                              ; preds = %169, %127, %111
  br label %236

171:                                              ; preds = %6
  %172 = load ptr, ptr %9, align 8
  %173 = load i32, ptr @hf_s7comm_cpu_msgservice_res_result, align 4
  %174 = load ptr, ptr %7, align 8
  %175 = load i32, ptr %12, align 4
  %176 = call ptr @proto_tree_add_item(ptr noundef %172, i32 noundef %173, ptr noundef %174, i32 noundef %175, i32 noundef 1, i32 noundef 0)
  %177 = load i32, ptr %12, align 4
  %178 = add i32 %177, 1
  store i32 %178, ptr %12, align 4
  %179 = load ptr, ptr %9, align 8
  %180 = load i32, ptr @hf_s7comm_cpu_msgservice_res_reserved1, align 4
  %181 = load ptr, ptr %7, align 8
  %182 = load i32, ptr %12, align 4
  %183 = call ptr @proto_tree_add_item(ptr noundef %179, i32 noundef %180, ptr noundef %181, i32 noundef %182, i32 noundef 1, i32 noundef 0)
  %184 = load i32, ptr %12, align 4
  %185 = add i32 %184, 1
  store i32 %185, ptr %12, align 4
  %186 = load i32, ptr %11, align 4
  %187 = icmp ugt i32 %186, 2
  br i1 %187, label %188, label %235

188:                                              ; preds = %171
  %189 = load ptr, ptr %7, align 8
  %190 = load i32, ptr %12, align 4
  %191 = call zeroext i8 @tvb_get_uint8(ptr noundef %189, i32 noundef %190)
  store i8 %191, ptr %14, align 1
  %192 = load ptr, ptr %9, align 8
  %193 = load i32, ptr @hf_s7comm_cpu_msgservice_almtype, align 4
  %194 = load ptr, ptr %7, align 8
  %195 = load i32, ptr %12, align 4
  %196 = call ptr @proto_tree_add_item(ptr noundef %192, i32 noundef %193, ptr noundef %194, i32 noundef %195, i32 noundef 1, i32 noundef 0)
  %197 = load ptr, ptr %8, align 8
  %198 = getelementptr inbounds nuw %struct._packet_info, ptr %197, i32 0, i32 1
  %199 = load ptr, ptr %198, align 8
  %200 = load i8, ptr %14, align 1
  %201 = zext i8 %200 to i32
  %202 = call ptr @val_to_str(i32 noundef %201, ptr noundef @cpu_msgservice_almtype_names, ptr noundef @.str.2350)
  call void (ptr, i32, ptr, ...) @col_append_fstr(ptr noundef %199, i32 noundef 25, ptr noundef @.str.2429, ptr noundef %202)
  %203 = load i32, ptr %12, align 4
  %204 = add i32 %203, 1
  store i32 %204, ptr %12, align 4
  %205 = load i8, ptr %14, align 1
  %206 = zext i8 %205 to i32
  %207 = icmp eq i32 %206, 7
  br i1 %207, label %212, label %208

208:                                              ; preds = %188
  %209 = load i8, ptr %14, align 1
  %210 = zext i8 %209 to i32
  %211 = icmp eq i32 %210, 6
  br i1 %211, label %212, label %219

212:                                              ; preds = %208, %188
  %213 = load ptr, ptr %7, align 8
  %214 = load ptr, ptr %8, align 8
  %215 = load ptr, ptr %9, align 8
  %216 = load i8, ptr %10, align 1
  %217 = load i32, ptr %12, align 4
  %218 = call i32 @s7comm_decode_message_service_ar_send_args(ptr noundef %213, ptr noundef %214, ptr noundef %215, i8 noundef zeroext %216, i32 noundef %217)
  store i32 %218, ptr %12, align 4
  br label %234

219:                                              ; preds = %208
  %220 = load ptr, ptr %9, align 8
  %221 = load i32, ptr @hf_s7comm_cpu_msgservice_res_reserved2, align 4
  %222 = load ptr, ptr %7, align 8
  %223 = load i32, ptr %12, align 4
  %224 = call ptr @proto_tree_add_item(ptr noundef %220, i32 noundef %221, ptr noundef %222, i32 noundef %223, i32 noundef 1, i32 noundef 0)
  %225 = load i32, ptr %12, align 4
  %226 = add i32 %225, 1
  store i32 %226, ptr %12, align 4
  %227 = load ptr, ptr %9, align 8
  %228 = load i32, ptr @hf_s7comm_cpu_msgservice_res_reserved3, align 4
  %229 = load ptr, ptr %7, align 8
  %230 = load i32, ptr %12, align 4
  %231 = call ptr @proto_tree_add_item(ptr noundef %227, i32 noundef %228, ptr noundef %229, i32 noundef %230, i32 noundef 1, i32 noundef 0)
  %232 = load i32, ptr %12, align 4
  %233 = add i32 %232, 1
  store i32 %233, ptr %12, align 4
  br label %234

234:                                              ; preds = %219, %212
  br label %235

235:                                              ; preds = %234, %171
  br label %236

236:                                              ; preds = %6, %235, %170
  %237 = load i32, ptr %12, align 4
  call void @llvm.lifetime.end.p0(i64 42, ptr %15) #8
  call void @llvm.lifetime.end.p0(i64 1, ptr %14) #8
  call void @llvm.lifetime.end.p0(i64 1, ptr %13) #8
  ret i32 %237
}