; Function Attrs: null_pointer_is_valid sspstrong uwtable
define internal fastcc noundef i32 @s7comm_decode_message_service(ptr noundef %0, ptr noundef readonly captures(none) %1, ptr noundef %2, i8 noundef zeroext range(i8 0, 4) %3, i32 noundef range(i32 1, 0) %4, i32 noundef %5) unnamed_addr #0 {
  %7 = alloca [42 x i8], align 16
  call void @llvm.lifetime.start.p0(i64 42, ptr nonnull %7) #8
  switch i8 %3, label %105 [
    i8 1, label %8
    i8 2, label %78
  ]

8:                                                ; preds = %6
  %9 = tail call zeroext i8 @tvb_get_uint8(ptr noundef %0, i32 noundef %5)
  %10 = load i32, ptr @hf_s7comm_cpu_msgservice_subscribe_events, align 4
  %11 = load i32, ptr @ett_s7comm_cpu_msgservice_subscribe_events, align 4
  %12 = tail call ptr @proto_tree_add_bitmask(ptr noundef %2, ptr noundef %0, i32 noundef %5, i32 noundef %10, i32 noundef %11, ptr noundef nonnull @s7comm_cpu_msgservice_subscribe_events_fields, i32 noundef 0)
  %13 = add i32 %5, 1
  %14 = load i32, ptr @hf_s7comm_cpu_msgservice_req_reserved1, align 4
  %15 = tail call ptr @proto_tree_add_item(ptr noundef %2, i32 noundef %14, ptr noundef %0, i32 noundef %13, i32 noundef 1, i32 noundef 0)
  %16 = add i32 %5, 2
  %17 = call i64 @g_strlcpy(ptr noundef nonnull %7, ptr noundef nonnull @.str.2124, i64 noundef 42)
  %18 = zext i8 %9 to i32
  %19 = and i32 %18, 1
  %.not = icmp eq i32 %19, 0
  br i1 %.not, label %22, label %20

20:                                               ; preds = %8
  %21 = call i64 @g_strlcat(ptr noundef nonnull %7, ptr noundef nonnull @.str.2420, i64 noundef 42)
  br label %22

22:                                               ; preds = %20, %8
  %23 = and i32 %18, 2
  %.not85 = icmp eq i32 %23, 0
  br i1 %.not85, label %26, label %24

24:                                               ; preds = %22
  %25 = call i64 @g_strlcat(ptr noundef nonnull %7, ptr noundef nonnull @.str.2421, i64 noundef 42)
  br label %26

26:                                               ; preds = %24, %22
  %27 = and i32 %18, 4
  %.not86 = icmp eq i32 %27, 0
  br i1 %.not86, label %30, label %28

28:                                               ; preds = %26
  %29 = call i64 @g_strlcat(ptr noundef nonnull %7, ptr noundef nonnull @.str.2422, i64 noundef 42)
  br label %30

30:                                               ; preds = %28, %26
  %31 = and i32 %18, 8
  %.not87 = icmp eq i32 %31, 0
  br i1 %.not87, label %34, label %32

32:                                               ; preds = %30
  %33 = call i64 @g_strlcat(ptr noundef nonnull %7, ptr noundef nonnull @.str.2423, i64 noundef 42)
  br label %34

34:                                               ; preds = %32, %30
  %35 = and i32 %18, 16
  %.not88 = icmp eq i32 %35, 0
  br i1 %.not88, label %38, label %36

36:                                               ; preds = %34
  %37 = call i64 @g_strlcat(ptr noundef nonnull %7, ptr noundef nonnull @.str.2424, i64 noundef 42)
  br label %38

38:                                               ; preds = %36, %34
  %39 = and i32 %18, 32
  %.not89 = icmp eq i32 %39, 0
  br i1 %.not89, label %42, label %40

40:                                               ; preds = %38
  %41 = call i64 @g_strlcat(ptr noundef nonnull %7, ptr noundef nonnull @.str.2425, i64 noundef 42)
  br label %42

42:                                               ; preds = %40, %38
  %43 = and i32 %18, 64
  %.not90 = icmp eq i32 %43, 0
  br i1 %.not90, label %46, label %44

44:                                               ; preds = %42
  %45 = call i64 @g_strlcat(ptr noundef nonnull %7, ptr noundef nonnull @.str.2426, i64 noundef 42)
  br label %46

46:                                               ; preds = %44, %42
  %47 = icmp slt i8 %9, 0
  br i1 %47, label %48, label %50

48:                                               ; preds = %46
  %49 = call i64 @g_strlcat(ptr noundef nonnull %7, ptr noundef nonnull @.str.2427, i64 noundef 42)
  br label %50

50:                                               ; preds = %48, %46
  %51 = call i64 @strlen(ptr noundef nonnull dereferenceable(1) %7) #9
  %52 = icmp ugt i64 %51, 2
  br i1 %52, label %53, label %56

53:                                               ; preds = %50
  %54 = add i64 %51, -1
  %55 = getelementptr [42 x i8], ptr %7, i64 0, i64 %54
  store i8 0, ptr %55, align 1
  br label %56

56:                                               ; preds = %53, %50
  %57 = getelementptr inbounds nuw i8, ptr %1, i64 8
  %58 = load ptr, ptr %57, align 8
  call void (ptr, i32, ptr, ...) @col_append_fstr(ptr noundef %58, i32 noundef 25, ptr noundef nonnull @.str.2428, ptr noundef nonnull %7)
  %59 = load i32, ptr @hf_s7comm_cpu_msgservice_username, align 4
  %60 = call ptr @proto_tree_add_item(ptr noundef %2, i32 noundef %59, ptr noundef %0, i32 noundef %16, i32 noundef 8, i32 noundef 0)
  %61 = add i32 %5, 10
  %62 = icmp ugt i32 %4, 10
  %or.cond = and i1 %62, %47
  br i1 %or.cond, label %63, label %105

63:                                               ; preds = %56
  %64 = call zeroext i8 @tvb_get_uint8(ptr noundef %0, i32 noundef %61)
  %65 = load i32, ptr @hf_s7comm_cpu_msgservice_almtype, align 4
  %66 = call ptr @proto_tree_add_item(ptr noundef %2, i32 noundef %65, ptr noundef %0, i32 noundef %61, i32 noundef 1, i32 noundef 0)
  %67 = load ptr, ptr %57, align 8
  %68 = zext i8 %64 to i32
  %69 = call ptr @val_to_str(i32 noundef %68, ptr noundef nonnull @cpu_msgservice_almtype_names, ptr noundef nonnull @.str.2350)
  call void (ptr, i32, ptr, ...) @col_append_fstr(ptr noundef %67, i32 noundef 25, ptr noundef nonnull @.str.2429, ptr noundef %69)
  %70 = add i32 %5, 11
  %71 = and i8 %64, -2
  %or.cond4 = icmp eq i8 %71, 6
  br i1 %or.cond4, label %72, label %74

72:                                               ; preds = %63
  %73 = call fastcc i32 @s7comm_decode_message_service_ar_send_args(ptr noundef %0, ptr noundef %1, ptr noundef %2, i8 noundef zeroext 1, i32 noundef %70)
  br label %105

74:                                               ; preds = %63
  %75 = load i32, ptr @hf_s7comm_cpu_msgservice_req_reserved2, align 4
  %76 = call ptr @proto_tree_add_item(ptr noundef %2, i32 noundef %75, ptr noundef %0, i32 noundef %70, i32 noundef 1, i32 noundef 0)
  %77 = add i32 %5, 12
  br label %105

78:                                               ; preds = %6
  %79 = load i32, ptr @hf_s7comm_cpu_msgservice_res_result, align 4
  %80 = tail call ptr @proto_tree_add_item(ptr noundef %2, i32 noundef %79, ptr noundef %0, i32 noundef %5, i32 noundef 1, i32 noundef 0)
  %81 = add i32 %5, 1
  %82 = load i32, ptr @hf_s7comm_cpu_msgservice_res_reserved1, align 4
  %83 = tail call ptr @proto_tree_add_item(ptr noundef %2, i32 noundef %82, ptr noundef %0, i32 noundef %81, i32 noundef 1, i32 noundef 0)
  %84 = add i32 %5, 2
  %85 = icmp ugt i32 %4, 2
  br i1 %85, label %86, label %105

86:                                               ; preds = %78
  %87 = tail call zeroext i8 @tvb_get_uint8(ptr noundef %0, i32 noundef %84)
  %88 = load i32, ptr @hf_s7comm_cpu_msgservice_almtype, align 4
  %89 = tail call ptr @proto_tree_add_item(ptr noundef %2, i32 noundef %88, ptr noundef %0, i32 noundef %84, i32 noundef 1, i32 noundef 0)
  %90 = getelementptr inbounds nuw i8, ptr %1, i64 8
  %91 = load ptr, ptr %90, align 8
  %92 = zext i8 %87 to i32
  %93 = tail call ptr @val_to_str(i32 noundef %92, ptr noundef nonnull @cpu_msgservice_almtype_names, ptr noundef nonnull @.str.2350)
  tail call void (ptr, i32, ptr, ...) @col_append_fstr(ptr noundef %91, i32 noundef 25, ptr noundef nonnull @.str.2429, ptr noundef %93)
  %94 = add i32 %5, 3
  %95 = and i8 %87, -2
  %or.cond7 = icmp eq i8 %95, 6
  br i1 %or.cond7, label %96, label %98

96:                                               ; preds = %86
  %97 = tail call fastcc i32 @s7comm_decode_message_service_ar_send_args(ptr noundef %0, ptr noundef %1, ptr noundef %2, i8 noundef zeroext 2, i32 noundef %94)
  br label %105

98:                                               ; preds = %86
  %99 = load i32, ptr @hf_s7comm_cpu_msgservice_res_reserved2, align 4
  %100 = tail call ptr @proto_tree_add_item(ptr noundef %2, i32 noundef %99, ptr noundef %0, i32 noundef %94, i32 noundef 1, i32 noundef 0)
  %101 = add i32 %5, 4
  %102 = load i32, ptr @hf_s7comm_cpu_msgservice_res_reserved3, align 4
  %103 = tail call ptr @proto_tree_add_item(ptr noundef %2, i32 noundef %102, ptr noundef %0, i32 noundef %101, i32 noundef 1, i32 noundef 0)
  %104 = add i32 %5, 5
  br label %105

105:                                              ; preds = %78, %98, %96, %56, %74, %72, %6
  %.0 = phi i32 [ %5, %6 ], [ %97, %96 ], [ %104, %98 ], [ %84, %78 ], [ %73, %72 ], [ %77, %74 ], [ %61, %56 ]
  call void @llvm.lifetime.end.p0(i64 42, ptr nonnull %7) #8
  ret i32 %.0
}